; Function Attrs: nounwind uwtable
define dso_local noundef ptr @CreateCopyDestReceiver() local_unnamed_addr #0 {
  %1 = tail call ptr @palloc(i64 noundef 56) #17
  store ptr @copy_dest_receive, ptr %1, align 8
  %2 = getelementptr inbounds nuw i8, ptr %1, i64 8
  store ptr @copy_dest_startup, ptr %2, align 8
  %3 = getelementptr inbounds nuw i8, ptr %1, i64 16
  store ptr @copy_dest_shutdown, ptr %3, align 8
  %4 = getelementptr inbounds nuw i8, ptr %1, i64 24
  store ptr @copy_dest_destroy, ptr %4, align 8
  %5 = getelementptr inbounds nuw i8, ptr %1, i64 32
  store i32 8, ptr %5, align 8
  %6 = getelementptr inbounds nuw i8, ptr %1, i64 40
  tail call void @llvm.memset.p0.i64(ptr noundef nonnull align 8 dereferenceable(16) %6, i8 0, i64 16, i1 false)
  ret ptr %1
}